---
triple:          'arm64-apple-darwin'
binary-path:     '/Users/rithkchaudhary/Documents/StriverDsaSheet/linkedList/medium/output/reversingLinkedList'
relocations:
  - { offsetInCU: 0x2D77, offset: 0x2D77, size: 0x8, addend: 0x0, symName: __ZNSt3__124__put_character_sequenceB7v160006IcNS_11char_traitsIcEEEERNS_13basic_ostreamIT_T0_EES7_PKS4_m, symObjAddr: 0x380, symBinAddr: 0x100003124, symSize: 0x1F4 }
  - { offsetInCU: 0x46AE, offset: 0x46AE, size: 0x8, addend: 0x0, symName: __ZNSt3__1lsB7v160006INS_11char_traitsIcEEEERNS_13basic_ostreamIcT_EES6_PKc, symObjAddr: 0x8C, symBinAddr: 0x100002E30, symSize: 0x48 }
  - { offsetInCU: 0x46F4, offset: 0x46F4, size: 0x8, addend: 0x0, symName: __ZNSt3__14endlB7v160006IcNS_11char_traitsIcEEEERNS_13basic_ostreamIT_T0_EES7_, symObjAddr: 0x100, symBinAddr: 0x100002EA4, symSize: 0x58 }
  - { offsetInCU: 0x4734, offset: 0x4734, size: 0x8, addend: 0x0, symName: __ZNSt3__116__pad_and_outputB7v160006IcNS_11char_traitsIcEEEENS_19ostreambuf_iteratorIT_T0_EES6_PKS4_S8_S8_RNS_8ios_baseES4_, symObjAddr: 0x5D8, symBinAddr: 0x10000337C, symSize: 0x248 }
  - { offsetInCU: 0x4803, offset: 0x4803, size: 0x8, addend: 0x0, symName: __ZNSt3__119__debug_db_insert_cB7v160006INS_12basic_stringIcNS_11char_traitsIcEENS_9allocatorIcEEEEEEvPT_, symObjAddr: 0xAA0, symBinAddr: 0x100003844, symSize: 0x10 }
  - { offsetInCU: 0x4834, offset: 0x4834, size: 0x8, addend: 0x0, symName: __ZNSt3__112__to_addressB7v160006IKcEEPT_S3_, symObjAddr: 0xB6C, symBinAddr: 0x100003910, symSize: 0x14 }
  - { offsetInCU: 0x4869, offset: 0x4869, size: 0x8, addend: 0x0, symName: __ZNSt3__130__libcpp_is_constant_evaluatedB7v160006Ev, symObjAddr: 0xC98, symBinAddr: 0x100003A3C, symSize: 0xC }
  - { offsetInCU: 0x48B9, offset: 0x48B9, size: 0x8, addend: 0x0, symName: __ZNSt3__19use_facetB7v160006INS_5ctypeIcEEEERKT_RKNS_6localeE, symObjAddr: 0xE50, symBinAddr: 0x100003BF4, symSize: 0x2C }
  - { offsetInCU: 0x4D88, offset: 0x4D88, size: 0x8, addend: 0x0, symName: __ZNSt3__118__constexpr_strlenB7v160006EPKc, symObjAddr: 0xEE8, symBinAddr: 0x100003C8C, symSize: 0x24 }
  - { offsetInCU: 0x720C, offset: 0x720C, size: 0x8, addend: 0x0, symName: __Z12printingListP4node, symObjAddr: 0x0, symBinAddr: 0x100002DA4, symSize: 0x8C }
  - { offsetInCU: 0x7242, offset: 0x7242, size: 0x8, addend: 0x0, symName: __ZNSt3__113basic_ostreamIcNS_11char_traitsIcEEElsB7v160006EPFRS3_S4_E, symObjAddr: 0xD4, symBinAddr: 0x100002E78, symSize: 0x2C }
  - { offsetInCU: 0x7274, offset: 0x7274, size: 0x8, addend: 0x0, symName: __Z17reverseLinkedListRP4node, symObjAddr: 0x158, symBinAddr: 0x100002EFC, symSize: 0x74 }
  - { offsetInCU: 0x72C6, offset: 0x72C6, size: 0x8, addend: 0x0, symName: _main, symObjAddr: 0x1CC, symBinAddr: 0x100002F70, symSize: 0x15C }
  - { offsetInCU: 0x7359, offset: 0x7359, size: 0x8, addend: 0x0, symName: __ZN4nodeC1Ei, symObjAddr: 0x328, symBinAddr: 0x1000030CC, symSize: 0x34 }
  - { offsetInCU: 0x738F, offset: 0x738F, size: 0x8, addend: 0x0, symName: __ZN4nodeC2Ei, symObjAddr: 0x35C, symBinAddr: 0x100003100, symSize: 0x24 }
  - { offsetInCU: 0x73C5, offset: 0x73C5, size: 0x8, addend: 0x0, symName: __ZNSt3__111char_traitsIcE6lengthEPKc, symObjAddr: 0x574, symBinAddr: 0x100003318, symSize: 0x48 }
  - { offsetInCU: 0x7405, offset: 0x7405, size: 0x8, addend: 0x0, symName: __ZNKSt3__113basic_ostreamIcNS_11char_traitsIcEEE6sentrycvbB7v160006Ev, symObjAddr: 0x5BC, symBinAddr: 0x100003360, symSize: 0x1C }
  - { offsetInCU: 0x7429, offset: 0x7429, size: 0x8, addend: 0x0, symName: __ZNSt3__119ostreambuf_iteratorIcNS_11char_traitsIcEEEC1B7v160006ERNS_13basic_ostreamIcS2_EE, symObjAddr: 0x820, symBinAddr: 0x1000035C4, symSize: 0x34 }
  - { offsetInCU: 0x745F, offset: 0x745F, size: 0x8, addend: 0x0, symName: __ZNKSt3__18ios_base5flagsB7v160006Ev, symObjAddr: 0x854, symBinAddr: 0x1000035F8, symSize: 0x18 }
  - { offsetInCU: 0x7485, offset: 0x7485, size: 0x8, addend: 0x0, symName: __ZNKSt3__19basic_iosIcNS_11char_traitsIcEEE4fillB7v160006Ev, symObjAddr: 0x86C, symBinAddr: 0x100003610, symSize: 0x64 }
  - { offsetInCU: 0x74AB, offset: 0x74AB, size: 0x8, addend: 0x0, symName: __ZNKSt3__119ostreambuf_iteratorIcNS_11char_traitsIcEEE6failedB7v160006Ev, symObjAddr: 0x8D0, symBinAddr: 0x100003674, symSize: 0x24 }
  - { offsetInCU: 0x74CF, offset: 0x74CF, size: 0x8, addend: 0x0, symName: __ZNSt3__19basic_iosIcNS_11char_traitsIcEEE8setstateB7v160006Ej, symObjAddr: 0x8F4, symBinAddr: 0x100003698, symSize: 0x2C }
  - { offsetInCU: 0x7502, offset: 0x7502, size: 0x8, addend: 0x0, symName: __ZNKSt3__18ios_base5widthB7v160006Ev, symObjAddr: 0x92C, symBinAddr: 0x1000036D0, symSize: 0x18 }
  - { offsetInCU: 0x7528, offset: 0x7528, size: 0x8, addend: 0x0, symName: __ZNSt3__115basic_streambufIcNS_11char_traitsIcEEE5sputnB7v160006EPKcl, symObjAddr: 0x944, symBinAddr: 0x1000036E8, symSize: 0x3C }
  - { offsetInCU: 0x7568, offset: 0x7568, size: 0x8, addend: 0x0, symName: __ZNSt3__112basic_stringIcNS_11char_traitsIcEENS_9allocatorIcEEEC1B7v160006Emc, symObjAddr: 0x980, symBinAddr: 0x100003724, symSize: 0x3C }
  - { offsetInCU: 0x75AE, offset: 0x75AE, size: 0x8, addend: 0x0, symName: __ZNKSt3__112basic_stringIcNS_11char_traitsIcEENS_9allocatorIcEEE4dataB7v160006Ev, symObjAddr: 0x9BC, symBinAddr: 0x100003760, symSize: 0x28 }
  - { offsetInCU: 0x75D2, offset: 0x75D2, size: 0x8, addend: 0x0, symName: __ZNSt3__18ios_base5widthB7v160006El, symObjAddr: 0x9E4, symBinAddr: 0x100003788, symSize: 0x2C }
  - { offsetInCU: 0x7616, offset: 0x7616, size: 0x8, addend: 0x0, symName: __ZNSt3__112basic_stringIcNS_11char_traitsIcEENS_9allocatorIcEEEC2B7v160006Emc, symObjAddr: 0xA10, symBinAddr: 0x1000037B4, symSize: 0x54 }
  - { offsetInCU: 0x7661, offset: 0x7661, size: 0x8, addend: 0x0, symName: __ZNSt3__117__compressed_pairINS_12basic_stringIcNS_11char_traitsIcEENS_9allocatorIcEEE5__repES5_EC1B7v160006INS_18__default_init_tagESA_EEOT_OT0_, symObjAddr: 0xA64, symBinAddr: 0x100003808, symSize: 0x3C }
  - { offsetInCU: 0x76B7, offset: 0x76B7, size: 0x8, addend: 0x0, symName: __ZNSt3__117__compressed_pairINS_12basic_stringIcNS_11char_traitsIcEENS_9allocatorIcEEE5__repES5_EC2B7v160006INS_18__default_init_tagESA_EEOT_OT0_, symObjAddr: 0xAB0, symBinAddr: 0x100003854, symSize: 0x3C }
  - { offsetInCU: 0x770D, offset: 0x770D, size: 0x8, addend: 0x0, symName: __ZNSt3__122__compressed_pair_elemINS_12basic_stringIcNS_11char_traitsIcEENS_9allocatorIcEEE5__repELi0ELb0EEC2B7v160006ENS_18__default_init_tagE, symObjAddr: 0xAEC, symBinAddr: 0x100003890, symSize: 0x14 }
  - { offsetInCU: 0x773F, offset: 0x773F, size: 0x8, addend: 0x0, symName: __ZNSt3__122__compressed_pair_elemINS_9allocatorIcEELi1ELb1EEC2B7v160006ENS_18__default_init_tagE, symObjAddr: 0xB00, symBinAddr: 0x1000038A4, symSize: 0x2C }
  - { offsetInCU: 0x7771, offset: 0x7771, size: 0x8, addend: 0x0, symName: __ZNSt3__19allocatorIcEC2B7v160006Ev, symObjAddr: 0xB2C, symBinAddr: 0x1000038D0, symSize: 0x2C }
  - { offsetInCU: 0x7799, offset: 0x7799, size: 0x8, addend: 0x0, symName: __ZNSt3__116__non_trivial_ifILb1ENS_9allocatorIcEEEC2B7v160006Ev, symObjAddr: 0xB58, symBinAddr: 0x1000038FC, symSize: 0x14 }
  - { offsetInCU: 0x77C1, offset: 0x77C1, size: 0x8, addend: 0x0, symName: __ZNKSt3__112basic_stringIcNS_11char_traitsIcEENS_9allocatorIcEEE13__get_pointerB7v160006Ev, symObjAddr: 0xB80, symBinAddr: 0x100003924, symSize: 0x54 }
  - { offsetInCU: 0x77E5, offset: 0x77E5, size: 0x8, addend: 0x0, symName: __ZNKSt3__112basic_stringIcNS_11char_traitsIcEENS_9allocatorIcEEE9__is_longB7v160006Ev, symObjAddr: 0xBD4, symBinAddr: 0x100003978, symSize: 0x74 }
  - { offsetInCU: 0x7809, offset: 0x7809, size: 0x8, addend: 0x0, symName: __ZNKSt3__112basic_stringIcNS_11char_traitsIcEENS_9allocatorIcEEE18__get_long_pointerB7v160006Ev, symObjAddr: 0xC48, symBinAddr: 0x1000039EC, symSize: 0x28 }
  - { offsetInCU: 0x782D, offset: 0x782D, size: 0x8, addend: 0x0, symName: __ZNKSt3__112basic_stringIcNS_11char_traitsIcEENS_9allocatorIcEEE19__get_short_pointerB7v160006Ev, symObjAddr: 0xC70, symBinAddr: 0x100003A14, symSize: 0x28 }
  - { offsetInCU: 0x7851, offset: 0x7851, size: 0x8, addend: 0x0, symName: __ZNKSt3__117__compressed_pairINS_12basic_stringIcNS_11char_traitsIcEENS_9allocatorIcEEE5__repES5_E5firstB7v160006Ev, symObjAddr: 0xCA4, symBinAddr: 0x100003A48, symSize: 0x24 }
  - { offsetInCU: 0x7875, offset: 0x7875, size: 0x8, addend: 0x0, symName: __ZNKSt3__122__compressed_pair_elemINS_12basic_stringIcNS_11char_traitsIcEENS_9allocatorIcEEE5__repELi0ELb0EE5__getB7v160006Ev, symObjAddr: 0xCC8, symBinAddr: 0x100003A6C, symSize: 0x14 }
  - { offsetInCU: 0x7899, offset: 0x7899, size: 0x8, addend: 0x0, symName: __ZNSt3__114pointer_traitsIPKcE10pointer_toB7v160006ERS1_, symObjAddr: 0xCDC, symBinAddr: 0x100003A80, symSize: 0x14 }
  - { offsetInCU: 0x78BB, offset: 0x78BB, size: 0x8, addend: 0x0, symName: __ZNSt3__119ostreambuf_iteratorIcNS_11char_traitsIcEEEC2B7v160006ERNS_13basic_ostreamIcS2_EE, symObjAddr: 0xCF0, symBinAddr: 0x100003A94, symSize: 0x68 }
  - { offsetInCU: 0x78F1, offset: 0x78F1, size: 0x8, addend: 0x0, symName: __ZNKSt3__19basic_iosIcNS_11char_traitsIcEEE5rdbufB7v160006Ev, symObjAddr: 0xD58, symBinAddr: 0x100003AFC, symSize: 0x24 }
  - { offsetInCU: 0x7917, offset: 0x7917, size: 0x8, addend: 0x0, symName: __ZNKSt3__18ios_base5rdbufB7v160006Ev, symObjAddr: 0xD7C, symBinAddr: 0x100003B20, symSize: 0x18 }
  - { offsetInCU: 0x793B, offset: 0x793B, size: 0x8, addend: 0x0, symName: __ZNSt3__111char_traitsIcE11eq_int_typeEii, symObjAddr: 0xD94, symBinAddr: 0x100003B38, symSize: 0x28 }
  - { offsetInCU: 0x796B, offset: 0x796B, size: 0x8, addend: 0x0, symName: __ZNSt3__111char_traitsIcE3eofEv, symObjAddr: 0xDBC, symBinAddr: 0x100003B60, symSize: 0x8 }
  - { offsetInCU: 0x797E, offset: 0x797E, size: 0x8, addend: 0x0, symName: __ZNKSt3__19basic_iosIcNS_11char_traitsIcEEE5widenB7v160006Ec, symObjAddr: 0xDC4, symBinAddr: 0x100003B68, symSize: 0x8C }
  - { offsetInCU: 0x79EA, offset: 0x79EA, size: 0x8, addend: 0x0, symName: __ZNKSt3__15ctypeIcE5widenB7v160006Ec, symObjAddr: 0xE7C, symBinAddr: 0x100003C20, symSize: 0x38 }
  - { offsetInCU: 0x7A1D, offset: 0x7A1D, size: 0x8, addend: 0x0, symName: __ZNSt3__18ios_base8setstateB7v160006Ej, symObjAddr: 0xEB4, symBinAddr: 0x100003C58, symSize: 0x34 }
...
