---
triple:          'arm64-apple-darwin'
binary-path:     '/Users/rithkchaudhary/Documents/StriverDsaSheet/Arrays/hard/output/repeatingAndMissingHashing'
relocations:
  - { offsetInCU: 0x480E, offset: 0x480E, size: 0x8, addend: 0x0, symName: __ZNSt3__124__put_character_sequenceB8ue170006IcNS_11char_traitsIcEEEERNS_13basic_ostreamIT_T0_EES7_PKS4_m, symObjAddr: 0x187C, symBinAddr: 0x100005240, symSize: 0x1F4 }
  - { offsetInCU: 0x66BC, offset: 0x66BC, size: 0x8, addend: 0x0, symName: __ZNSt3__111max_elementB8ue170006INS_11__wrap_iterIPiEEEET_S4_S4_, symObjAddr: 0x238, symBinAddr: 0x100003BFC, symSize: 0x44 }
  - { offsetInCU: 0x66FF, offset: 0x66FF, size: 0x8, addend: 0x0, symName: __ZNSt3__1lsB8ue170006INS_11char_traitsIcEEEERNS_13basic_ostreamIcT_EES6_PKc, symObjAddr: 0x354, symBinAddr: 0x100003D18, symSize: 0x48 }
  - { offsetInCU: 0x6745, offset: 0x6745, size: 0x8, addend: 0x0, symName: __ZNSt3__111max_elementB8ue170006INS_11__wrap_iterIPiEENS_6__lessIvvEEEET_S6_S6_T0_, symObjAddr: 0x644, symBinAddr: 0x100004008, symSize: 0x48 }
  - { offsetInCU: 0x679F, offset: 0x679F, size: 0x8, addend: 0x0, symName: __ZNSt3__113__max_elementB8ue170006IRNS_6__lessIvvEENS_11__wrap_iterIPiEEEET0_S7_S7_T_, symObjAddr: 0x68C, symBinAddr: 0x100004050, symSize: 0xB8 }
  - { offsetInCU: 0x6815, offset: 0x6815, size: 0x8, addend: 0x0, symName: __ZNSt3__1neB8ue170006IPiEEbRKNS_11__wrap_iterIT_EES6_, symObjAddr: 0x744, symBinAddr: 0x100004108, symSize: 0x34 }
  - { offsetInCU: 0x68CE, offset: 0x68CE, size: 0x8, addend: 0x0, symName: __ZNSt3__1eqB8ue170006IPiEEbRKNS_11__wrap_iterIT_EES6_, symObjAddr: 0x7CC, symBinAddr: 0x100004190, symSize: 0x48 }
  - { offsetInCU: 0x6911, offset: 0x6911, size: 0x8, addend: 0x0, symName: __ZNSt3__122__make_exception_guardB8ue170006INS_6vectorIiNS_9allocatorIiEEE16__destroy_vectorEEENS_28__exception_guard_exceptionsIT_EES7_, symObjAddr: 0x94C, symBinAddr: 0x100004310, symSize: 0x40 }
  - { offsetInCU: 0x6946, offset: 0x6946, size: 0x8, addend: 0x0, symName: __ZNSt3__119__allocate_at_leastB8ue170006INS_9allocatorIiEEEENS_19__allocation_resultINS_16allocator_traitsIT_E7pointerEEERS5_m, symObjAddr: 0xD5C, symBinAddr: 0x100004720, symSize: 0x40 }
  - { offsetInCU: 0x6989, offset: 0x6989, size: 0x8, addend: 0x0, symName: __ZNSt3__13minB8ue170006ImEERKT_S3_S3_, symObjAddr: 0xE98, symBinAddr: 0x10000485C, symSize: 0x2C }
  - { offsetInCU: 0x6BCD, offset: 0x6BCD, size: 0x8, addend: 0x0, symName: __ZNSt3__13minB8ue170006ImNS_6__lessIvvEEEERKT_S5_S5_T0_, symObjAddr: 0xF24, symBinAddr: 0x1000048E8, symSize: 0x54 }
  - { offsetInCU: 0x6C27, offset: 0x6C27, size: 0x8, addend: 0x0, symName: __ZNSt3__120__throw_length_errorB8ue170006EPKc, symObjAddr: 0x1000, symBinAddr: 0x1000049C4, symSize: 0x64 }
  - { offsetInCU: 0x6C51, offset: 0x6C51, size: 0x8, addend: 0x0, symName: __ZNSt3__130__libcpp_is_constant_evaluatedB8ue170006Ev, symObjAddr: 0x119C, symBinAddr: 0x100004B60, symSize: 0xC }
  - { offsetInCU: 0x6C6E, offset: 0x6C6E, size: 0x8, addend: 0x0, symName: __ZNSt3__117__libcpp_allocateB8ue170006Emm, symObjAddr: 0x11A8, symBinAddr: 0x100004B6C, symSize: 0x28 }
  - { offsetInCU: 0x6CAB, offset: 0x6CAB, size: 0x8, addend: 0x0, symName: __ZNSt3__121__libcpp_operator_newB8ue170006IJmEEEPvDpT_, symObjAddr: 0x11D0, symBinAddr: 0x100004B94, symSize: 0x24 }
  - { offsetInCU: 0x6CE4, offset: 0x6CE4, size: 0x8, addend: 0x0, symName: __ZNSt3__112__to_addressB8ue170006IiEEPT_S2_, symObjAddr: 0x12EC, symBinAddr: 0x100004CB0, symSize: 0x14 }
  - { offsetInCU: 0x6D19, offset: 0x6D19, size: 0x8, addend: 0x0, symName: __ZNSt3__119__libcpp_deallocateB8ue170006EPvmm, symObjAddr: 0x17C4, symBinAddr: 0x100005188, symSize: 0x30 }
  - { offsetInCU: 0x6D61, offset: 0x6D61, size: 0x8, addend: 0x0, symName: __ZNSt3__127__do_deallocate_handle_sizeB8ue170006IJEEEvPvmDpT_, symObjAddr: 0x17F4, symBinAddr: 0x1000051B8, symSize: 0x28 }
  - { offsetInCU: 0x6D9F, offset: 0x6D9F, size: 0x8, addend: 0x0, symName: __ZNSt3__124__libcpp_operator_deleteB8ue170006IJPvEEEvDpT_, symObjAddr: 0x181C, symBinAddr: 0x1000051E0, symSize: 0x24 }
  - { offsetInCU: 0x6DD4, offset: 0x6DD4, size: 0x8, addend: 0x0, symName: __ZNSt3__116__pad_and_outputB8ue170006IcNS_11char_traitsIcEEEENS_19ostreambuf_iteratorIT_T0_EES6_PKS4_S8_S8_RNS_8ios_baseES4_, symObjAddr: 0x1AD4, symBinAddr: 0x100005498, symSize: 0x248 }
  - { offsetInCU: 0x6EA3, offset: 0x6EA3, size: 0x8, addend: 0x0, symName: __ZNSt3__112__to_addressB8ue170006IKcEEPT_S3_, symObjAddr: 0x2044, symBinAddr: 0x100005A08, symSize: 0x14 }
  - { offsetInCU: 0x6F0B, offset: 0x6F0B, size: 0x8, addend: 0x0, symName: __ZNSt3__19use_facetB8ue170006INS_5ctypeIcEEEERKT_RKNS_6localeE, symObjAddr: 0x231C, symBinAddr: 0x100005CE0, symSize: 0x2C }
  - { offsetInCU: 0x73D8, offset: 0x73D8, size: 0x8, addend: 0x0, symName: __ZNSt3__118__constexpr_strlenB8ue170006EPKc, symObjAddr: 0x23B4, symBinAddr: 0x100005D78, symSize: 0x24 }
  - { offsetInCU: 0x7404, offset: 0x7404, size: 0x8, addend: 0x0, symName: __ZNSt3__13maxB8ue170006ImEERKT_S3_S3_, symObjAddr: 0x2824, symBinAddr: 0x1000061E8, symSize: 0x2C }
  - { offsetInCU: 0x7447, offset: 0x7447, size: 0x8, addend: 0x0, symName: __ZNSt3__13maxB8ue170006ImNS_6__lessIvvEEEERKT_S5_S5_T0_, symObjAddr: 0x2850, symBinAddr: 0x100006214, symSize: 0x54 }
  - { offsetInCU: 0x74A1, offset: 0x74A1, size: 0x8, addend: 0x0, symName: __ZNSt3__142__uninitialized_allocator_move_if_noexceptB8ue170006INS_9allocatorIiEENS_16reverse_iteratorIPiEES5_ivEET1_RT_T0_S9_S6_, symObjAddr: 0x2AD0, symBinAddr: 0x100006494, symSize: 0xE8 }
  - { offsetInCU: 0x751E, offset: 0x751E, size: 0x8, addend: 0x0, symName: __ZNSt3__14swapB8ue170006IPiEEvRT_S3_, symObjAddr: 0x2C04, symBinAddr: 0x1000065C8, symSize: 0x3C }
  - { offsetInCU: 0x756F, offset: 0x756F, size: 0x8, addend: 0x0, symName: __ZNSt3__1neB8ue170006IPiS1_EEbRKNS_16reverse_iteratorIT_EERKNS2_IT0_EE, symObjAddr: 0x2C40, symBinAddr: 0x100006604, symSize: 0x48 }
  - { offsetInCU: 0x75E0, offset: 0x75E0, size: 0x8, addend: 0x0, symName: __ZNSt3__114__construct_atB8ue170006IiJiEPiEEPT_S3_DpOT0_, symObjAddr: 0x2C88, symBinAddr: 0x10000664C, symSize: 0x2C }
  - { offsetInCU: 0x7650, offset: 0x7650, size: 0x8, addend: 0x0, symName: __ZNSt3__112__to_addressB8ue170006INS_16reverse_iteratorIPiEEvEEu7__decayIDTclsr19__to_address_helperIT_EE6__callclsr3stdE7declvalIRKS4_EEEEES6_, symObjAddr: 0x2CB4, symBinAddr: 0x100006678, symSize: 0x24 }
  - { offsetInCU: 0x7686, offset: 0x7686, size: 0x8, addend: 0x0, symName: __ZNSt3__14moveB8ue170006INS_16reverse_iteratorIPiEES3_EET0_T_S5_S4_, symObjAddr: 0x2D20, symBinAddr: 0x1000066E4, symSize: 0x78 }
  - { offsetInCU: 0x7709, offset: 0x7709, size: 0x8, addend: 0x0, symName: __ZNSt3__16__moveB8ue170006INS_17_ClassicAlgPolicyENS_16reverse_iteratorIPiEES4_S4_EENS_4pairIT0_T2_EES6_T1_S7_, symObjAddr: 0x2E08, symBinAddr: 0x1000067CC, symSize: 0x64 }
  - { offsetInCU: 0x7775, offset: 0x7775, size: 0x8, addend: 0x0, symName: __ZNSt3__123__dispatch_copy_or_moveB8ue170006INS_17_ClassicAlgPolicyENS_11__move_loopIS1_EENS_14__move_trivialENS_16reverse_iteratorIPiEES7_S7_EENS_4pairIT2_T4_EES9_T3_SA_, symObjAddr: 0x2E6C, symBinAddr: 0x100006830, symSize: 0x64 }
  - { offsetInCU: 0x77F3, offset: 0x77F3, size: 0x8, addend: 0x0, symName: __ZNSt3__121__unwrap_and_dispatchB8ue170006INS_10__overloadINS_11__move_loopINS_17_ClassicAlgPolicyEEENS_14__move_trivialEEENS_16reverse_iteratorIPiEES9_S9_Li0EEENS_4pairIT0_T2_EESB_T1_SC_, symObjAddr: 0x2ED0, symBinAddr: 0x100006894, symSize: 0x12C }
  - { offsetInCU: 0x7883, offset: 0x7883, size: 0x8, addend: 0x0, symName: __ZNSt3__114__unwrap_rangeB8ue170006INS_16reverse_iteratorIPiEES3_EENS_4pairIT0_S5_EET_S7_, symObjAddr: 0x2FFC, symBinAddr: 0x1000069C0, symSize: 0x84 }
  - { offsetInCU: 0x79D7, offset: 0x79D7, size: 0x8, addend: 0x0, symName: __ZNSt3__113__unwrap_iterB8ue170006INS_16reverse_iteratorIPiEENS_18__unwrap_iter_implIS3_Lb0EEELi0EEEDTclsrT0_8__unwrapclsr3stdE7declvalIT_EEEES7_, symObjAddr: 0x3120, symBinAddr: 0x100006AE4, symSize: 0x44 }
  - { offsetInCU: 0x7A1B, offset: 0x7A1B, size: 0x8, addend: 0x0, symName: __ZNSt3__19make_pairB8ue170006INS_16reverse_iteratorIPiEES3_EENS_4pairINS_18__unwrap_ref_decayIT_E4typeENS5_IT0_E4typeEEEOS6_OS9_, symObjAddr: 0x3164, symBinAddr: 0x100006B28, symSize: 0x38 }
  - { offsetInCU: 0x7A6A, offset: 0x7A6A, size: 0x8, addend: 0x0, symName: __ZNSt3__114__rewrap_rangeB8ue170006INS_16reverse_iteratorIPiEES3_EET_S4_T0_, symObjAddr: 0x319C, symBinAddr: 0x100006B60, symSize: 0x5C }
  - { offsetInCU: 0x7AB6, offset: 0x7AB6, size: 0x8, addend: 0x0, symName: __ZNSt3__113__rewrap_iterB8ue170006INS_16reverse_iteratorIPiEES3_NS_18__unwrap_iter_implIS3_Lb0EEEEET_S6_T0_, symObjAddr: 0x31F8, symBinAddr: 0x100006BBC, symSize: 0x88 }
  - { offsetInCU: 0x7BBD, offset: 0x7BBD, size: 0x8, addend: 0x0, symName: __ZNSt3__130__uninitialized_allocator_copyB8ue170006INS_9allocatorIiEEPiS3_S3_EET2_RT_T0_T1_S4_, symObjAddr: 0x3818, symBinAddr: 0x1000071DC, symSize: 0x80 }
  - { offsetInCU: 0x7C5A, offset: 0x7C5A, size: 0x8, addend: 0x0, symName: __ZNSt3__114__unwrap_rangeB8ue170006IPiS1_EENS_4pairIT0_S3_EET_S5_, symObjAddr: 0x3898, symBinAddr: 0x10000725C, symSize: 0x60 }
  - { offsetInCU: 0x7CA6, offset: 0x7CA6, size: 0x8, addend: 0x0, symName: __ZNSt3__135__uninitialized_allocator_copy_implB8ue170006INS_9allocatorIiEEPiS3_S3_EET2_RT_T0_T1_S4_, symObjAddr: 0x38F8, symBinAddr: 0x1000072BC, symSize: 0xFC }
  - { offsetInCU: 0x7D44, offset: 0x7D44, size: 0x8, addend: 0x0, symName: __ZNSt3__113__unwrap_iterB8ue170006IPiNS_18__unwrap_iter_implIS1_Lb1EEELi0EEEDTclsrT0_8__unwrapclsr3stdE7declvalIT_EEEES5_, symObjAddr: 0x39F4, symBinAddr: 0x1000073B8, symSize: 0x24 }
  - { offsetInCU: 0x7D88, offset: 0x7D88, size: 0x8, addend: 0x0, symName: __ZNSt3__113__rewrap_iterB8ue170006IPiS1_NS_18__unwrap_iter_implIS1_Lb1EEEEET_S4_T0_, symObjAddr: 0x3A18, symBinAddr: 0x1000073DC, symSize: 0x50 }
  - { offsetInCU: 0x7DDD, offset: 0x7DDD, size: 0x8, addend: 0x0, symName: __ZNSt3__19make_pairB8ue170006IPiS1_EENS_4pairINS_18__unwrap_ref_decayIT_E4typeENS3_IT0_E4typeEEEOS4_OS7_, symObjAddr: 0x3A68, symBinAddr: 0x10000742C, symSize: 0x38 }
  - { offsetInCU: 0x7ED9, offset: 0x7ED9, size: 0x8, addend: 0x0, symName: __ZNSt3__122__make_exception_guardB8ue170006INS_29_AllocatorDestroyRangeReverseINS_9allocatorIiEEPiEEEENS_28__exception_guard_exceptionsIT_EES7_, symObjAddr: 0x3B10, symBinAddr: 0x1000074D4, symSize: 0x4C }
  - { offsetInCU: 0x7F0F, offset: 0x7F0F, size: 0x8, addend: 0x0, symName: __ZNSt3__119__allocator_destroyB8ue170006INS_9allocatorIiEENS_16reverse_iteratorIPiEES5_EEvRT_T0_T1_, symObjAddr: 0x3D90, symBinAddr: 0x100007754, symSize: 0x70 }
  - { offsetInCU: 0x81A3, offset: 0x81A3, size: 0x8, addend: 0x0, symName: __ZSt28__throw_bad_array_new_lengthB8ue170006v, symObjAddr: 0x1168, symBinAddr: 0x100004B2C, symSize: 0x34 }
  - { offsetInCU: 0x874F, offset: 0x874F, size: 0x8, addend: 0x0, symName: __ZNSt3__16vectorIiNS_9allocatorIiEEE26__swap_out_circular_bufferERNS_14__split_bufferIiRS2_EE, symObjAddr: 0x26E8, symBinAddr: 0x1000060AC, symSize: 0x110 }
  - { offsetInCU: 0xAAF7, offset: 0xAAF7, size: 0x8, addend: 0x0, symName: __Z19repeatingAndMissingNSt3__16vectorIiNS_9allocatorIiEEEE, symObjAddr: 0x0, symBinAddr: 0x1000039C4, symSize: 0x210 }
  - { offsetInCU: 0xABA1, offset: 0xABA1, size: 0x8, addend: 0x0, symName: __ZNKSt3__16vectorIiNS_9allocatorIiEEE4sizeB8ue170006Ev, symObjAddr: 0x210, symBinAddr: 0x100003BD4, symSize: 0x28 }
  - { offsetInCU: 0xABC5, offset: 0xABC5, size: 0x8, addend: 0x0, symName: __ZNSt3__16vectorIiNS_9allocatorIiEEE5beginB8ue170006Ev, symObjAddr: 0x27C, symBinAddr: 0x100003C40, symSize: 0x30 }
  - { offsetInCU: 0xABEB, offset: 0xABEB, size: 0x8, addend: 0x0, symName: __ZNSt3__16vectorIiNS_9allocatorIiEEE3endB8ue170006Ev, symObjAddr: 0x2AC, symBinAddr: 0x100003C70, symSize: 0x30 }
  - { offsetInCU: 0xAC12, offset: 0xAC12, size: 0x8, addend: 0x0, symName: __ZNKSt3__111__wrap_iterIPiEdeB8ue170006Ev, symObjAddr: 0x2DC, symBinAddr: 0x100003CA0, symSize: 0x18 }
  - { offsetInCU: 0xAC37, offset: 0xAC37, size: 0x8, addend: 0x0, symName: __ZNSt3__16vectorIiNS_9allocatorIiEEEC1EmRKi, symObjAddr: 0x2F4, symBinAddr: 0x100003CB8, symSize: 0x3C }
  - { offsetInCU: 0xAC80, offset: 0xAC80, size: 0x8, addend: 0x0, symName: __ZNSt3__16vectorIiNS_9allocatorIiEEEixB8ue170006Em, symObjAddr: 0x330, symBinAddr: 0x100003CF4, symSize: 0x24 }
  - { offsetInCU: 0xACB6, offset: 0xACB6, size: 0x8, addend: 0x0, symName: __ZNSt3__16vectorIiNS_9allocatorIiEEED1B8ue170006Ev, symObjAddr: 0x39C, symBinAddr: 0x100003D60, symSize: 0x2C }
  - { offsetInCU: 0xACDF, offset: 0xACDF, size: 0x8, addend: 0x0, symName: _main, symObjAddr: 0x3D4, symBinAddr: 0x100003D98, symSize: 0x120 }
  - { offsetInCU: 0xAD08, offset: 0xAD08, size: 0x8, addend: 0x0, symName: __ZNSt3__16vectorIiNS_9allocatorIiEEEC1B8ue170006Ev, symObjAddr: 0x4F4, symBinAddr: 0x100003EB8, symSize: 0x2C }
  - { offsetInCU: 0xAD30, offset: 0xAD30, size: 0x8, addend: 0x0, symName: __ZNSt3__16vectorIiNS_9allocatorIiEEE9push_backB8ue170006EOi, symObjAddr: 0x520, symBinAddr: 0x100003EE4, symSize: 0x6C }
  - { offsetInCU: 0xAD66, offset: 0xAD66, size: 0x8, addend: 0x0, symName: __ZNSt3__16vectorIiNS_9allocatorIiEEEC1ERKS3_, symObjAddr: 0x58C, symBinAddr: 0x100003F50, symSize: 0x34 }
  - { offsetInCU: 0xADA0, offset: 0xADA0, size: 0x8, addend: 0x0, symName: __ZNSt3__16vectorIiNS_9allocatorIiEEE11__make_iterB8ue170006EPi, symObjAddr: 0x5C0, symBinAddr: 0x100003F84, symSize: 0x30 }
  - { offsetInCU: 0xADD4, offset: 0xADD4, size: 0x8, addend: 0x0, symName: __ZNSt3__111__wrap_iterIPiEC1B8ue170006ES1_, symObjAddr: 0x5F0, symBinAddr: 0x100003FB4, symSize: 0x34 }
  - { offsetInCU: 0xAE0B, offset: 0xAE0B, size: 0x8, addend: 0x0, symName: __ZNSt3__111__wrap_iterIPiEC2B8ue170006ES1_, symObjAddr: 0x624, symBinAddr: 0x100003FE8, symSize: 0x20 }
  - { offsetInCU: 0xAE42, offset: 0xAE42, size: 0x8, addend: 0x0, symName: __ZNSt3__111__wrap_iterIPiEppB8ue170006Ev, symObjAddr: 0x778, symBinAddr: 0x10000413C, symSize: 0x20 }
  - { offsetInCU: 0xAE71, offset: 0xAE71, size: 0x8, addend: 0x0, symName: __ZNKSt3__16__lessIvvEclB8ue170006IiiEEbRKT_RKT0_, symObjAddr: 0x798, symBinAddr: 0x10000415C, symSize: 0x34 }
  - { offsetInCU: 0xAEC4, offset: 0xAEC4, size: 0x8, addend: 0x0, symName: __ZNKSt3__111__wrap_iterIPiE4baseB8ue170006Ev, symObjAddr: 0x814, symBinAddr: 0x1000041D8, symSize: 0x18 }
  - { offsetInCU: 0xAEE9, offset: 0xAEE9, size: 0x8, addend: 0x0, symName: __ZNSt3__16vectorIiNS_9allocatorIiEEEC2EmRKi, symObjAddr: 0x82C, symBinAddr: 0x1000041F0, symSize: 0xE4 }
  - { offsetInCU: 0xAF51, offset: 0xAF51, size: 0x8, addend: 0x0, symName: __ZNSt3__117__compressed_pairIPiNS_9allocatorIiEEEC1B8ue170006IDnNS_18__default_init_tagEEEOT_OT0_, symObjAddr: 0x910, symBinAddr: 0x1000042D4, symSize: 0x3C }
  - { offsetInCU: 0xAFA8, offset: 0xAFA8, size: 0x8, addend: 0x0, symName: __ZNSt3__16vectorIiNS_9allocatorIiEEE16__destroy_vectorC1B8ue170006ERS3_, symObjAddr: 0x98C, symBinAddr: 0x100004350, symSize: 0x34 }
  - { offsetInCU: 0xAFE0, offset: 0xAFE0, size: 0x8, addend: 0x0, symName: __ZNSt3__16vectorIiNS_9allocatorIiEEE11__vallocateB8ue170006Em, symObjAddr: 0x9C0, symBinAddr: 0x100004384, symSize: 0xAC }
  - { offsetInCU: 0xB022, offset: 0xB022, size: 0x8, addend: 0x0, symName: __ZNSt3__16vectorIiNS_9allocatorIiEEE18__construct_at_endEmRKi, symObjAddr: 0xA6C, symBinAddr: 0x100004430, symSize: 0xD8 }
  - { offsetInCU: 0xB0A2, offset: 0xB0A2, size: 0x8, addend: 0x0, symName: __ZNSt3__128__exception_guard_exceptionsINS_6vectorIiNS_9allocatorIiEEE16__destroy_vectorEE10__completeB8ue170006Ev, symObjAddr: 0xB44, symBinAddr: 0x100004508, symSize: 0x1C }
  - { offsetInCU: 0xB0C7, offset: 0xB0C7, size: 0x8, addend: 0x0, symName: __ZNSt3__128__exception_guard_exceptionsINS_6vectorIiNS_9allocatorIiEEE16__destroy_vectorEED1B8ue170006Ev, symObjAddr: 0xB60, symBinAddr: 0x100004524, symSize: 0x2C }
  - { offsetInCU: 0xB0F0, offset: 0xB0F0, size: 0x8, addend: 0x0, symName: __ZNSt3__117__compressed_pairIPiNS_9allocatorIiEEEC2B8ue170006IDnNS_18__default_init_tagEEEOT_OT0_, symObjAddr: 0xB8C, symBinAddr: 0x100004550, symSize: 0x40 }
  - { offsetInCU: 0xB147, offset: 0xB147, size: 0x8, addend: 0x0, symName: __ZNSt3__122__compressed_pair_elemIPiLi0ELb0EEC2B8ue170006IDnvEEOT_, symObjAddr: 0xBCC, symBinAddr: 0x100004590, symSize: 0x1C }
  - { offsetInCU: 0xB188, offset: 0xB188, size: 0x8, addend: 0x0, symName: __ZNSt3__122__compressed_pair_elemINS_9allocatorIiEELi1ELb1EEC2B8ue170006ENS_18__default_init_tagE, symObjAddr: 0xBE8, symBinAddr: 0x1000045AC, symSize: 0x2C }
  - { offsetInCU: 0xB1BC, offset: 0xB1BC, size: 0x8, addend: 0x0, symName: __ZNSt3__19allocatorIiEC2B8ue170006Ev, symObjAddr: 0xC14, symBinAddr: 0x1000045D8, symSize: 0x2C }
  - { offsetInCU: 0xB1E5, offset: 0xB1E5, size: 0x8, addend: 0x0, symName: __ZNSt3__116__non_trivial_ifILb1ENS_9allocatorIiEEEC2B8ue170006Ev, symObjAddr: 0xC40, symBinAddr: 0x100004604, symSize: 0x14 }
  - { offsetInCU: 0xB20E, offset: 0xB20E, size: 0x8, addend: 0x0, symName: __ZNSt3__128__exception_guard_exceptionsINS_6vectorIiNS_9allocatorIiEEE16__destroy_vectorEEC1B8ue170006ES5_, symObjAddr: 0xC54, symBinAddr: 0x100004618, symSize: 0x34 }
  - { offsetInCU: 0xB245, offset: 0xB245, size: 0x8, addend: 0x0, symName: __ZNSt3__128__exception_guard_exceptionsINS_6vectorIiNS_9allocatorIiEEE16__destroy_vectorEEC2B8ue170006ES5_, symObjAddr: 0xC88, symBinAddr: 0x10000464C, symSize: 0x24 }
  - { offsetInCU: 0xB27C, offset: 0xB27C, size: 0x8, addend: 0x0, symName: __ZNSt3__16vectorIiNS_9allocatorIiEEE16__destroy_vectorC2B8ue170006ERS3_, symObjAddr: 0xCAC, symBinAddr: 0x100004670, symSize: 0x20 }
  - { offsetInCU: 0xB2B3, offset: 0xB2B3, size: 0x8, addend: 0x0, symName: __ZNKSt3__16vectorIiNS_9allocatorIiEEE8max_sizeEv, symObjAddr: 0xCCC, symBinAddr: 0x100004690, symSize: 0x74 }
  - { offsetInCU: 0xB2DA, offset: 0xB2DA, size: 0x8, addend: 0x0, symName: __ZNKSt3__16vectorIiNS_9allocatorIiEEE20__throw_length_errorB8ue170006Ev, symObjAddr: 0xD40, symBinAddr: 0x100004704, symSize: 0x1C }
  - { offsetInCU: 0xB2FF, offset: 0xB2FF, size: 0x8, addend: 0x0, symName: __ZNSt3__16vectorIiNS_9allocatorIiEEE7__allocB8ue170006Ev, symObjAddr: 0xD9C, symBinAddr: 0x100004760, symSize: 0x28 }
  - { offsetInCU: 0xB324, offset: 0xB324, size: 0x8, addend: 0x0, symName: __ZNSt3__16vectorIiNS_9allocatorIiEEE9__end_capB8ue170006Ev, symObjAddr: 0xDC4, symBinAddr: 0x100004788, symSize: 0x28 }
  - { offsetInCU: 0xB349, offset: 0xB349, size: 0x8, addend: 0x0, symName: __ZNKSt3__16vectorIiNS_9allocatorIiEEE14__annotate_newB8ue170006Em, symObjAddr: 0xDEC, symBinAddr: 0x1000047B0, symSize: 0xAC }
  - { offsetInCU: 0xB387, offset: 0xB387, size: 0x8, addend: 0x0, symName: __ZNSt3__116allocator_traitsINS_9allocatorIiEEE8max_sizeB8ue170006IS2_vEEmRKS2_, symObjAddr: 0xEC4, symBinAddr: 0x100004888, symSize: 0x24 }
  - { offsetInCU: 0xB3B5, offset: 0xB3B5, size: 0x8, addend: 0x0, symName: __ZNKSt3__16vectorIiNS_9allocatorIiEEE7__allocB8ue170006Ev, symObjAddr: 0xEE8, symBinAddr: 0x1000048AC, symSize: 0x28 }
  - { offsetInCU: 0xB3DA, offset: 0xB3DA, size: 0x8, addend: 0x0, symName: __ZNSt3__114numeric_limitsIlE3maxB8ue170006Ev, symObjAddr: 0xF10, symBinAddr: 0x1000048D4, symSize: 0x14 }
  - { offsetInCU: 0xB3F8, offset: 0xB3F8, size: 0x8, addend: 0x0, symName: __ZNKSt3__16__lessIvvEclB8ue170006ImmEEbRKT_RKT0_, symObjAddr: 0xF78, symBinAddr: 0x10000493C, symSize: 0x34 }
  - { offsetInCU: 0xB44B, offset: 0xB44B, size: 0x8, addend: 0x0, symName: __ZNKSt3__19allocatorIiE8max_sizeB8ue170006Ev, symObjAddr: 0xFAC, symBinAddr: 0x100004970, symSize: 0x14 }
  - { offsetInCU: 0xB470, offset: 0xB470, size: 0x8, addend: 0x0, symName: __ZNKSt3__117__compressed_pairIPiNS_9allocatorIiEEE6secondB8ue170006Ev, symObjAddr: 0xFC0, symBinAddr: 0x100004984, symSize: 0x24 }
  - { offsetInCU: 0xB495, offset: 0xB495, size: 0x8, addend: 0x0, symName: __ZNKSt3__122__compressed_pair_elemINS_9allocatorIiEELi1ELb1EE5__getB8ue170006Ev, symObjAddr: 0xFE4, symBinAddr: 0x1000049A8, symSize: 0x14 }
  - { offsetInCU: 0xB4BA, offset: 0xB4BA, size: 0x8, addend: 0x0, symName: __ZNSt3__123__libcpp_numeric_limitsIlLb1EE3maxB8ue170006Ev, symObjAddr: 0xFF8, symBinAddr: 0x1000049BC, symSize: 0x8 }
  - { offsetInCU: 0xB4CE, offset: 0xB4CE, size: 0x8, addend: 0x0, symName: __ZNSt12length_errorC1B8ue170006EPKc, symObjAddr: 0x1064, symBinAddr: 0x100004A28, symSize: 0x34 }
  - { offsetInCU: 0xB505, offset: 0xB505, size: 0x8, addend: 0x0, symName: __ZNSt12length_errorC2B8ue170006EPKc, symObjAddr: 0x1098, symBinAddr: 0x100004A5C, symSize: 0x4C }
  - { offsetInCU: 0xB53C, offset: 0xB53C, size: 0x8, addend: 0x0, symName: __ZNSt3__19allocatorIiE8allocateB8ue170006Em, symObjAddr: 0x10E4, symBinAddr: 0x100004AA8, symSize: 0x84 }
  - { offsetInCU: 0xB56F, offset: 0xB56F, size: 0x8, addend: 0x0, symName: __ZNSt3__117__compressed_pairIPiNS_9allocatorIiEEE6secondB8ue170006Ev, symObjAddr: 0x11F4, symBinAddr: 0x100004BB8, symSize: 0x24 }
  - { offsetInCU: 0xB594, offset: 0xB594, size: 0x8, addend: 0x0, symName: __ZNSt3__122__compressed_pair_elemINS_9allocatorIiEELi1ELb1EE5__getB8ue170006Ev, symObjAddr: 0x1218, symBinAddr: 0x100004BDC, symSize: 0x14 }
  - { offsetInCU: 0xB5B9, offset: 0xB5B9, size: 0x8, addend: 0x0, symName: __ZNSt3__117__compressed_pairIPiNS_9allocatorIiEEE5firstB8ue170006Ev, symObjAddr: 0x122C, symBinAddr: 0x100004BF0, symSize: 0x24 }
  - { offsetInCU: 0xB5DE, offset: 0xB5DE, size: 0x8, addend: 0x0, symName: __ZNSt3__122__compressed_pair_elemIPiLi0ELb0EE5__getB8ue170006Ev, symObjAddr: 0x1250, symBinAddr: 0x100004C14, symSize: 0x14 }
  - { offsetInCU: 0xB603, offset: 0xB603, size: 0x8, addend: 0x0, symName: __ZNKSt3__16vectorIiNS_9allocatorIiEEE31__annotate_contiguous_containerB8ue170006EPKvS5_S5_S5_, symObjAddr: 0x1264, symBinAddr: 0x100004C28, symSize: 0x20 }
  - { offsetInCU: 0xB654, offset: 0xB654, size: 0x8, addend: 0x0, symName: __ZNKSt3__16vectorIiNS_9allocatorIiEEE4dataB8ue170006Ev, symObjAddr: 0x1284, symBinAddr: 0x100004C48, symSize: 0x28 }
  - { offsetInCU: 0xB679, offset: 0xB679, size: 0x8, addend: 0x0, symName: __ZNKSt3__16vectorIiNS_9allocatorIiEEE8capacityB8ue170006Ev, symObjAddr: 0x12AC, symBinAddr: 0x100004C70, symSize: 0x40 }
  - { offsetInCU: 0xB69E, offset: 0xB69E, size: 0x8, addend: 0x0, symName: __ZNKSt3__16vectorIiNS_9allocatorIiEEE9__end_capB8ue170006Ev, symObjAddr: 0x1300, symBinAddr: 0x100004CC4, symSize: 0x28 }
  - { offsetInCU: 0xB6C3, offset: 0xB6C3, size: 0x8, addend: 0x0, symName: __ZNKSt3__117__compressed_pairIPiNS_9allocatorIiEEE5firstB8ue170006Ev, symObjAddr: 0x1328, symBinAddr: 0x100004CEC, symSize: 0x24 }
  - { offsetInCU: 0xB6E8, offset: 0xB6E8, size: 0x8, addend: 0x0, symName: __ZNKSt3__122__compressed_pair_elemIPiLi0ELb0EE5__getB8ue170006Ev, symObjAddr: 0x134C, symBinAddr: 0x100004D10, symSize: 0x14 }
  - { offsetInCU: 0xB726, offset: 0xB726, size: 0x8, addend: 0x0, symName: __ZNSt3__16vectorIiNS_9allocatorIiEEE21_ConstructTransactionC1B8ue170006ERS3_m, symObjAddr: 0x1360, symBinAddr: 0x100004D24, symSize: 0x3C }
  - { offsetInCU: 0xB76D, offset: 0xB76D, size: 0x8, addend: 0x0, symName: __ZNSt3__116allocator_traitsINS_9allocatorIiEEE9constructB8ue170006IiJRKiEvEEvRS2_PT_DpOT0_, symObjAddr: 0x139C, symBinAddr: 0x100004D60, symSize: 0x34 }
  - { offsetInCU: 0xB7C4, offset: 0xB7C4, size: 0x8, addend: 0x0, symName: __ZNSt3__16vectorIiNS_9allocatorIiEEE21_ConstructTransactionD1B8ue170006Ev, symObjAddr: 0x13D0, symBinAddr: 0x100004D94, symSize: 0x2C }
  - { offsetInCU: 0xB7ED, offset: 0xB7ED, size: 0x8, addend: 0x0, symName: __ZNSt3__16vectorIiNS_9allocatorIiEEE21_ConstructTransactionC2B8ue170006ERS3_m, symObjAddr: 0x13FC, symBinAddr: 0x100004DC0, symSize: 0x44 }
  - { offsetInCU: 0xB834, offset: 0xB834, size: 0x8, addend: 0x0, symName: __ZNSt3__19allocatorIiE9constructB8ue170006IiJRKiEEEvPT_DpOT0_, symObjAddr: 0x1440, symBinAddr: 0x100004E04, symSize: 0x28 }
  - { offsetInCU: 0xB889, offset: 0xB889, size: 0x8, addend: 0x0, symName: __ZNSt3__16vectorIiNS_9allocatorIiEEE21_ConstructTransactionD2B8ue170006Ev, symObjAddr: 0x1468, symBinAddr: 0x100004E2C, symSize: 0x20 }
  - { offsetInCU: 0xB8B2, offset: 0xB8B2, size: 0x8, addend: 0x0, symName: __ZNSt3__128__exception_guard_exceptionsINS_6vectorIiNS_9allocatorIiEEE16__destroy_vectorEED2B8ue170006Ev, symObjAddr: 0x1488, symBinAddr: 0x100004E4C, symSize: 0x48 }
  - { offsetInCU: 0xB8DB, offset: 0xB8DB, size: 0x8, addend: 0x0, symName: __ZNSt3__16vectorIiNS_9allocatorIiEEE16__destroy_vectorclB8ue170006Ev, symObjAddr: 0x14D0, symBinAddr: 0x100004E94, symSize: 0x90 }
  - { offsetInCU: 0xB900, offset: 0xB900, size: 0x8, addend: 0x0, symName: __ZNSt3__16vectorIiNS_9allocatorIiEEE7__clearB8ue170006Ev, symObjAddr: 0x1560, symBinAddr: 0x100004F24, symSize: 0x28 }
  - { offsetInCU: 0xB925, offset: 0xB925, size: 0x8, addend: 0x0, symName: __ZNKSt3__16vectorIiNS_9allocatorIiEEE17__annotate_deleteB8ue170006Ev, symObjAddr: 0x1588, symBinAddr: 0x100004F4C, symSize: 0xB8 }
  - { offsetInCU: 0xB94A, offset: 0xB94A, size: 0x8, addend: 0x0, symName: __ZNSt3__116allocator_traitsINS_9allocatorIiEEE10deallocateB8ue170006ERS2_Pim, symObjAddr: 0x1640, symBinAddr: 0x100005004, symSize: 0x34 }
  - { offsetInCU: 0xB98C, offset: 0xB98C, size: 0x8, addend: 0x0, symName: __ZNSt3__16vectorIiNS_9allocatorIiEEE22__base_destruct_at_endB8ue170006EPi, symObjAddr: 0x1674, symBinAddr: 0x100005038, symSize: 0xA0 }
  - { offsetInCU: 0xB9CF, offset: 0xB9CF, size: 0x8, addend: 0x0, symName: __ZNSt3__116allocator_traitsINS_9allocatorIiEEE7destroyB8ue170006IivEEvRS2_PT_, symObjAddr: 0x1714, symBinAddr: 0x1000050D8, symSize: 0x2C }
  - { offsetInCU: 0xBA0C, offset: 0xBA0C, size: 0x8, addend: 0x0, symName: __ZNSt3__19allocatorIiE7destroyB8ue170006EPi, symObjAddr: 0x1740, symBinAddr: 0x100005104, symSize: 0x14 }
  - { offsetInCU: 0xBA3F, offset: 0xBA3F, size: 0x8, addend: 0x0, symName: __ZNSt3__19allocatorIiE10deallocateB8ue170006EPim, symObjAddr: 0x1754, symBinAddr: 0x100005118, symSize: 0x70 }
  - { offsetInCU: 0xBA80, offset: 0xBA80, size: 0x8, addend: 0x0, symName: __ZNSt3__16vectorIiNS_9allocatorIiEEED2B8ue170006Ev, symObjAddr: 0x1840, symBinAddr: 0x100005204, symSize: 0x3C }
  - { offsetInCU: 0xBAA9, offset: 0xBAA9, size: 0x8, addend: 0x0, symName: __ZNSt3__111char_traitsIcE6lengthB8ue170006EPKc, symObjAddr: 0x1A70, symBinAddr: 0x100005434, symSize: 0x48 }
  - { offsetInCU: 0xBAEA, offset: 0xBAEA, size: 0x8, addend: 0x0, symName: __ZNKSt3__113basic_ostreamIcNS_11char_traitsIcEEE6sentrycvbB8ue170006Ev, symObjAddr: 0x1AB8, symBinAddr: 0x10000547C, symSize: 0x1C }
  - { offsetInCU: 0xBB0F, offset: 0xBB0F, size: 0x8, addend: 0x0, symName: __ZNSt3__119ostreambuf_iteratorIcNS_11char_traitsIcEEEC1B8ue170006ERNS_13basic_ostreamIcS2_EE, symObjAddr: 0x1D1C, symBinAddr: 0x1000056E0, symSize: 0x34 }
  - { offsetInCU: 0xBB46, offset: 0xBB46, size: 0x8, addend: 0x0, symName: __ZNKSt3__18ios_base5flagsB8ue170006Ev, symObjAddr: 0x1D50, symBinAddr: 0x100005714, symSize: 0x18 }
  - { offsetInCU: 0xBB6C, offset: 0xBB6C, size: 0x8, addend: 0x0, symName: __ZNKSt3__19basic_iosIcNS_11char_traitsIcEEE4fillB8ue170006Ev, symObjAddr: 0x1D68, symBinAddr: 0x10000572C, symSize: 0x64 }
  - { offsetInCU: 0xBB93, offset: 0xBB93, size: 0x8, addend: 0x0, symName: __ZNKSt3__119ostreambuf_iteratorIcNS_11char_traitsIcEEE6failedB8ue170006Ev, symObjAddr: 0x1DCC, symBinAddr: 0x100005790, symSize: 0x24 }
  - { offsetInCU: 0xBBB8, offset: 0xBBB8, size: 0x8, addend: 0x0, symName: __ZNSt3__19basic_iosIcNS_11char_traitsIcEEE8setstateB8ue170006Ej, symObjAddr: 0x1DF0, symBinAddr: 0x1000057B4, symSize: 0x2C }
  - { offsetInCU: 0xBBEC, offset: 0xBBEC, size: 0x8, addend: 0x0, symName: __ZNKSt3__18ios_base5widthB8ue170006Ev, symObjAddr: 0x1E1C, symBinAddr: 0x1000057E0, symSize: 0x18 }
  - { offsetInCU: 0xBC13, offset: 0xBC13, size: 0x8, addend: 0x0, symName: __ZNSt3__115basic_streambufIcNS_11char_traitsIcEEE5sputnB8ue170006EPKcl, symObjAddr: 0x1E34, symBinAddr: 0x1000057F8, symSize: 0x3C }
  - { offsetInCU: 0xBC54, offset: 0xBC54, size: 0x8, addend: 0x0, symName: __ZNSt3__112basic_stringIcNS_11char_traitsIcEENS_9allocatorIcEEEC1B8ue170006Emc, symObjAddr: 0x1E70, symBinAddr: 0x100005834, symSize: 0x3C }
  - { offsetInCU: 0xBC9B, offset: 0xBC9B, size: 0x8, addend: 0x0, symName: __ZNKSt3__112basic_stringIcNS_11char_traitsIcEENS_9allocatorIcEEE4dataB8ue170006Ev, symObjAddr: 0x1EAC, symBinAddr: 0x100005870, symSize: 0x28 }
  - { offsetInCU: 0xBCC0, offset: 0xBCC0, size: 0x8, addend: 0x0, symName: __ZNSt3__18ios_base5widthB8ue170006El, symObjAddr: 0x1ED4, symBinAddr: 0x100005898, symSize: 0x2C }
  - { offsetInCU: 0xBD05, offset: 0xBD05, size: 0x8, addend: 0x0, symName: __ZNSt3__112basic_stringIcNS_11char_traitsIcEENS_9allocatorIcEEEC2B8ue170006Emc, symObjAddr: 0x1F00, symBinAddr: 0x1000058C4, symSize: 0x4C }
  - { offsetInCU: 0xBD4C, offset: 0xBD4C, size: 0x8, addend: 0x0, symName: __ZNSt3__117__compressed_pairINS_12basic_stringIcNS_11char_traitsIcEENS_9allocatorIcEEE5__repES5_EC1B8ue170006INS_18__default_init_tagESA_EEOT_OT0_, symObjAddr: 0x1F4C, symBinAddr: 0x100005910, symSize: 0x3C }
  - { offsetInCU: 0xBDA3, offset: 0xBDA3, size: 0x8, addend: 0x0, symName: __ZNSt3__117__compressed_pairINS_12basic_stringIcNS_11char_traitsIcEENS_9allocatorIcEEE5__repES5_EC2B8ue170006INS_18__default_init_tagESA_EEOT_OT0_, symObjAddr: 0x1F88, symBinAddr: 0x10000594C, symSize: 0x3C }
  - { offsetInCU: 0xBDFA, offset: 0xBDFA, size: 0x8, addend: 0x0, symName: __ZNSt3__122__compressed_pair_elemINS_12basic_stringIcNS_11char_traitsIcEENS_9allocatorIcEEE5__repELi0ELb0EEC2B8ue170006ENS_18__default_init_tagE, symObjAddr: 0x1FC4, symBinAddr: 0x100005988, symSize: 0x14 }
  - { offsetInCU: 0xBE2E, offset: 0xBE2E, size: 0x8, addend: 0x0, symName: __ZNSt3__122__compressed_pair_elemINS_9allocatorIcEELi1ELb1EEC2B8ue170006ENS_18__default_init_tagE, symObjAddr: 0x1FD8, symBinAddr: 0x10000599C, symSize: 0x2C }
  - { offsetInCU: 0xBE62, offset: 0xBE62, size: 0x8, addend: 0x0, symName: __ZNSt3__19allocatorIcEC2B8ue170006Ev, symObjAddr: 0x2004, symBinAddr: 0x1000059C8, symSize: 0x2C }
  - { offsetInCU: 0xBE8B, offset: 0xBE8B, size: 0x8, addend: 0x0, symName: __ZNSt3__116__non_trivial_ifILb1ENS_9allocatorIcEEEC2B8ue170006Ev, symObjAddr: 0x2030, symBinAddr: 0x1000059F4, symSize: 0x14 }
  - { offsetInCU: 0xBEB4, offset: 0xBEB4, size: 0x8, addend: 0x0, symName: __ZNKSt3__112basic_stringIcNS_11char_traitsIcEENS_9allocatorIcEEE13__get_pointerB8ue170006Ev, symObjAddr: 0x2058, symBinAddr: 0x100005A1C, symSize: 0x54 }
  - { offsetInCU: 0xBED9, offset: 0xBED9, size: 0x8, addend: 0x0, symName: __ZNKSt3__112basic_stringIcNS_11char_traitsIcEENS_9allocatorIcEEE9__is_longB8ue170006Ev, symObjAddr: 0x20AC, symBinAddr: 0x100005A70, symSize: 0x74 }
  - { offsetInCU: 0xBEFE, offset: 0xBEFE, size: 0x8, addend: 0x0, symName: __ZNKSt3__112basic_stringIcNS_11char_traitsIcEENS_9allocatorIcEEE18__get_long_pointerB8ue170006Ev, symObjAddr: 0x2120, symBinAddr: 0x100005AE4, symSize: 0x28 }
  - { offsetInCU: 0xBF23, offset: 0xBF23, size: 0x8, addend: 0x0, symName: __ZNKSt3__112basic_stringIcNS_11char_traitsIcEENS_9allocatorIcEEE19__get_short_pointerB8ue170006Ev, symObjAddr: 0x2148, symBinAddr: 0x100005B0C, symSize: 0x28 }
  - { offsetInCU: 0xBF48, offset: 0xBF48, size: 0x8, addend: 0x0, symName: __ZNKSt3__117__compressed_pairINS_12basic_stringIcNS_11char_traitsIcEENS_9allocatorIcEEE5__repES5_E5firstB8ue170006Ev, symObjAddr: 0x2170, symBinAddr: 0x100005B34, symSize: 0x24 }
  - { offsetInCU: 0xBF6D, offset: 0xBF6D, size: 0x8, addend: 0x0, symName: __ZNKSt3__122__compressed_pair_elemINS_12basic_stringIcNS_11char_traitsIcEENS_9allocatorIcEEE5__repELi0ELb0EE5__getB8ue170006Ev, symObjAddr: 0x2194, symBinAddr: 0x100005B58, symSize: 0x14 }
  - { offsetInCU: 0xBF92, offset: 0xBF92, size: 0x8, addend: 0x0, symName: __ZNSt3__114pointer_traitsIPKcE10pointer_toB8ue170006ERS1_, symObjAddr: 0x21A8, symBinAddr: 0x100005B6C, symSize: 0x14 }
  - { offsetInCU: 0xBFB5, offset: 0xBFB5, size: 0x8, addend: 0x0, symName: __ZNSt3__119ostreambuf_iteratorIcNS_11char_traitsIcEEEC2B8ue170006ERNS_13basic_ostreamIcS2_EE, symObjAddr: 0x21BC, symBinAddr: 0x100005B80, symSize: 0x68 }
  - { offsetInCU: 0xBFEB, offset: 0xBFEB, size: 0x8, addend: 0x0, symName: __ZNKSt3__19basic_iosIcNS_11char_traitsIcEEE5rdbufB8ue170006Ev, symObjAddr: 0x2224, symBinAddr: 0x100005BE8, symSize: 0x24 }
  - { offsetInCU: 0xC012, offset: 0xC012, size: 0x8, addend: 0x0, symName: __ZNKSt3__18ios_base5rdbufB8ue170006Ev, symObjAddr: 0x2248, symBinAddr: 0x100005C0C, symSize: 0x18 }
  - { offsetInCU: 0xC037, offset: 0xC037, size: 0x8, addend: 0x0, symName: __ZNSt3__111char_traitsIcE11eq_int_typeB8ue170006Eii, symObjAddr: 0x2260, symBinAddr: 0x100005C24, symSize: 0x28 }
  - { offsetInCU: 0xC06A, offset: 0xC06A, size: 0x8, addend: 0x0, symName: __ZNSt3__111char_traitsIcE3eofB8ue170006Ev, symObjAddr: 0x2288, symBinAddr: 0x100005C4C, symSize: 0x8 }
  - { offsetInCU: 0xC07D, offset: 0xC07D, size: 0x8, addend: 0x0, symName: __ZNKSt3__19basic_iosIcNS_11char_traitsIcEEE5widenB8ue170006Ec, symObjAddr: 0x2290, symBinAddr: 0x100005C54, symSize: 0x8C }
  - { offsetInCU: 0xC0EA, offset: 0xC0EA, size: 0x8, addend: 0x0, symName: __ZNKSt3__15ctypeIcE5widenB8ue170006Ec, symObjAddr: 0x2348, symBinAddr: 0x100005D0C, symSize: 0x38 }
  - { offsetInCU: 0xC11D, offset: 0xC11D, size: 0x8, addend: 0x0, symName: __ZNSt3__18ios_base8setstateB8ue170006Ej, symObjAddr: 0x2380, symBinAddr: 0x100005D44, symSize: 0x34 }
  - { offsetInCU: 0xC153, offset: 0xC153, size: 0x8, addend: 0x0, symName: __ZNSt3__16vectorIiNS_9allocatorIiEEEC2B8ue170006Ev, symObjAddr: 0x23D8, symBinAddr: 0x100005D9C, symSize: 0x44 }
  - { offsetInCU: 0xC181, offset: 0xC181, size: 0x8, addend: 0x0, symName: __ZNSt3__16vectorIiNS_9allocatorIiEEE22__construct_one_at_endB8ue170006IJiEEEvDpOT_, symObjAddr: 0x241C, symBinAddr: 0x100005DE0, symSize: 0x98 }
  - { offsetInCU: 0xC1CE, offset: 0xC1CE, size: 0x8, addend: 0x0, symName: __ZNSt3__16vectorIiNS_9allocatorIiEEE21__push_back_slow_pathIiEEvOT_, symObjAddr: 0x24B4, symBinAddr: 0x100005E78, symSize: 0xE0 }
  - { offsetInCU: 0xC22B, offset: 0xC22B, size: 0x8, addend: 0x0, symName: __ZNSt3__116allocator_traitsINS_9allocatorIiEEE9constructB8ue170006IiJiEvEEvRS2_PT_DpOT0_, symObjAddr: 0x2594, symBinAddr: 0x100005F58, symSize: 0x34 }
  - { offsetInCU: 0xC282, offset: 0xC282, size: 0x8, addend: 0x0, symName: __ZNSt3__19allocatorIiE9constructB8ue170006IiJiEEEvPT_DpOT0_, symObjAddr: 0x25C8, symBinAddr: 0x100005F8C, symSize: 0x28 }
  - { offsetInCU: 0xC2D6, offset: 0xC2D6, size: 0x8, addend: 0x0, symName: __ZNKSt3__16vectorIiNS_9allocatorIiEEE11__recommendB8ue170006Em, symObjAddr: 0x25F0, symBinAddr: 0x100005FB4, symSize: 0xB4 }
  - { offsetInCU: 0xC32A, offset: 0xC32A, size: 0x8, addend: 0x0, symName: __ZNSt3__114__split_bufferIiRNS_9allocatorIiEEEC1EmmS3_, symObjAddr: 0x26A4, symBinAddr: 0x100006068, symSize: 0x44 }
  - { offsetInCU: 0xC37F, offset: 0xC37F, size: 0x8, addend: 0x0, symName: __ZNSt3__114__split_bufferIiRNS_9allocatorIiEEED1Ev, symObjAddr: 0x27F8, symBinAddr: 0x1000061BC, symSize: 0x2C }
  - { offsetInCU: 0xC3AA, offset: 0xC3AA, size: 0x8, addend: 0x0, symName: __ZNSt3__114__split_bufferIiRNS_9allocatorIiEEEC2EmmS3_, symObjAddr: 0x28A4, symBinAddr: 0x100006268, symSize: 0xD4 }
  - { offsetInCU: 0xC41C, offset: 0xC41C, size: 0x8, addend: 0x0, symName: __ZNSt3__117__compressed_pairIPiRNS_9allocatorIiEEEC1B8ue170006IDnS4_EEOT_OT0_, symObjAddr: 0x2978, symBinAddr: 0x10000633C, symSize: 0x3C }
  - { offsetInCU: 0xC473, offset: 0xC473, size: 0x8, addend: 0x0, symName: __ZNSt3__114__split_bufferIiRNS_9allocatorIiEEE7__allocB8ue170006Ev, symObjAddr: 0x29B4, symBinAddr: 0x100006378, symSize: 0x28 }
  - { offsetInCU: 0xC498, offset: 0xC498, size: 0x8, addend: 0x0, symName: __ZNSt3__114__split_bufferIiRNS_9allocatorIiEEE9__end_capB8ue170006Ev, symObjAddr: 0x29DC, symBinAddr: 0x1000063A0, symSize: 0x28 }
  - { offsetInCU: 0xC4BD, offset: 0xC4BD, size: 0x8, addend: 0x0, symName: __ZNSt3__117__compressed_pairIPiRNS_9allocatorIiEEEC2B8ue170006IDnS4_EEOT_OT0_, symObjAddr: 0x2A04, symBinAddr: 0x1000063C8, symSize: 0x48 }
  - { offsetInCU: 0xC514, offset: 0xC514, size: 0x8, addend: 0x0, symName: __ZNSt3__122__compressed_pair_elemIRNS_9allocatorIiEELi1ELb0EEC2B8ue170006IS3_vEEOT_, symObjAddr: 0x2A4C, symBinAddr: 0x100006410, symSize: 0x20 }
  - { offsetInCU: 0xC555, offset: 0xC555, size: 0x8, addend: 0x0, symName: __ZNSt3__117__compressed_pairIPiRNS_9allocatorIiEEE6secondB8ue170006Ev, symObjAddr: 0x2A6C, symBinAddr: 0x100006430, symSize: 0x28 }
  - { offsetInCU: 0xC57A, offset: 0xC57A, size: 0x8, addend: 0x0, symName: __ZNSt3__122__compressed_pair_elemIRNS_9allocatorIiEELi1ELb0EE5__getB8ue170006Ev, symObjAddr: 0x2A94, symBinAddr: 0x100006458, symSize: 0x18 }
  - { offsetInCU: 0xC59F, offset: 0xC59F, size: 0x8, addend: 0x0, symName: __ZNSt3__117__compressed_pairIPiRNS_9allocatorIiEEE5firstB8ue170006Ev, symObjAddr: 0x2AAC, symBinAddr: 0x100006470, symSize: 0x24 }
  - { offsetInCU: 0xC5C4, offset: 0xC5C4, size: 0x8, addend: 0x0, symName: __ZNSt3__116reverse_iteratorIPiEC1B8ue170006ES1_, symObjAddr: 0x2BB8, symBinAddr: 0x10000657C, symSize: 0x34 }
  - { offsetInCU: 0xC5FB, offset: 0xC5FB, size: 0x8, addend: 0x0, symName: __ZNKSt3__116reverse_iteratorIPiE4baseB8ue170006Ev, symObjAddr: 0x2BEC, symBinAddr: 0x1000065B0, symSize: 0x18 }
  - { offsetInCU: 0xC620, offset: 0xC620, size: 0x8, addend: 0x0, symName: __ZNKSt3__116reverse_iteratorIPiEdeB8ue170006Ev, symObjAddr: 0x2CD8, symBinAddr: 0x10000669C, symSize: 0x28 }
  - { offsetInCU: 0xC653, offset: 0xC653, size: 0x8, addend: 0x0, symName: __ZNSt3__116reverse_iteratorIPiEppB8ue170006Ev, symObjAddr: 0x2D00, symBinAddr: 0x1000066C4, symSize: 0x20 }
  - { offsetInCU: 0xC67D, offset: 0xC67D, size: 0x8, addend: 0x0, symName: __ZNSt3__119__to_address_helperINS_16reverse_iteratorIPiEEvE6__callB8ue170006ERKS3_, symObjAddr: 0x2D98, symBinAddr: 0x10000675C, symSize: 0x4C }
  - { offsetInCU: 0xC6A0, offset: 0xC6A0, size: 0x8, addend: 0x0, symName: __ZNKSt3__116reverse_iteratorIPiEptB8ue170006Ev, symObjAddr: 0x2DE4, symBinAddr: 0x1000067A8, symSize: 0x24 }
  - { offsetInCU: 0xC6E8, offset: 0xC6E8, size: 0x8, addend: 0x0, symName: __ZNKSt3__111__move_loopINS_17_ClassicAlgPolicyEEclB8ue170006INS_16reverse_iteratorIPiEES6_S6_EENS_4pairIT_T1_EES8_T0_S9_, symObjAddr: 0x3080, symBinAddr: 0x100006A44, symSize: 0xA0 }
  - { offsetInCU: 0xC752, offset: 0xC752, size: 0x8, addend: 0x0, symName: __ZNSt3__18_IterOpsINS_17_ClassicAlgPolicyEE11__iter_moveB8ue170006IRNS_16reverse_iteratorIPiEEEENS_9enable_ifIXsr12is_referenceIDTdeclsr3stdE7declvalIRT_EEEEE5valueEDTclsr3stdE4movedeclsr3stdE7declvalISA_EEEEE4typeEOS9_, symObjAddr: 0x3280, symBinAddr: 0x100006C44, symSize: 0x28 }
  - { offsetInCU: 0xC77E, offset: 0xC77E, size: 0x8, addend: 0x0, symName: __ZNSt3__18_IterOpsINS_17_ClassicAlgPolicyEE25__validate_iter_referenceB8ue170006IRNS_16reverse_iteratorIPiEEEEvv, symObjAddr: 0x32A8, symBinAddr: 0x100006C6C, symSize: 0x4 }
  - { offsetInCU: 0xC79C, offset: 0xC79C, size: 0x8, addend: 0x0, symName: __ZNSt3__118__unwrap_iter_implINS_16reverse_iteratorIPiEELb0EE8__unwrapB8ue170006ES3_, symObjAddr: 0x32AC, symBinAddr: 0x100006C70, symSize: 0x24 }
  - { offsetInCU: 0xC7BF, offset: 0xC7BF, size: 0x8, addend: 0x0, symName: __ZNSt3__14pairINS_16reverse_iteratorIPiEES3_EC1B8ue170006ERKS3_S6_, symObjAddr: 0x32D0, symBinAddr: 0x100006C94, symSize: 0x3C }
  - { offsetInCU: 0xC804, offset: 0xC804, size: 0x8, addend: 0x0, symName: __ZNSt3__14pairINS_16reverse_iteratorIPiEES3_EC2B8ue170006ERKS3_S6_, symObjAddr: 0x330C, symBinAddr: 0x100006CD0, symSize: 0x34 }
  - { offsetInCU: 0xC849, offset: 0xC849, size: 0x8, addend: 0x0, symName: __ZNSt3__118__unwrap_iter_implINS_16reverse_iteratorIPiEELb0EE8__rewrapB8ue170006ES3_S3_, symObjAddr: 0x3340, symBinAddr: 0x100006D04, symSize: 0x2C }
  - { offsetInCU: 0xC877, offset: 0xC877, size: 0x8, addend: 0x0, symName: __ZNSt3__116reverse_iteratorIPiEC2B8ue170006ES1_, symObjAddr: 0x336C, symBinAddr: 0x100006D30, symSize: 0x28 }
  - { offsetInCU: 0xC8AE, offset: 0xC8AE, size: 0x8, addend: 0x0, symName: __ZNSt3__114__split_bufferIiRNS_9allocatorIiEEED2Ev, symObjAddr: 0x3394, symBinAddr: 0x100006D58, symSize: 0x80 }
  - { offsetInCU: 0xC8D9, offset: 0xC8D9, size: 0x8, addend: 0x0, symName: __ZNSt3__114__split_bufferIiRNS_9allocatorIiEEE5clearB8ue170006Ev, symObjAddr: 0x3414, symBinAddr: 0x100006DD8, symSize: 0x28 }
  - { offsetInCU: 0xC8FE, offset: 0xC8FE, size: 0x8, addend: 0x0, symName: __ZNKSt3__114__split_bufferIiRNS_9allocatorIiEEE8capacityB8ue170006Ev, symObjAddr: 0x343C, symBinAddr: 0x100006E00, symSize: 0x40 }
  - { offsetInCU: 0xC923, offset: 0xC923, size: 0x8, addend: 0x0, symName: __ZNSt3__114__split_bufferIiRNS_9allocatorIiEEE17__destruct_at_endB8ue170006EPi, symObjAddr: 0x347C, symBinAddr: 0x100006E40, symSize: 0x2C }
  - { offsetInCU: 0xC955, offset: 0xC955, size: 0x8, addend: 0x0, symName: __ZNSt3__114__split_bufferIiRNS_9allocatorIiEEE17__destruct_at_endB8ue170006EPiNS_17integral_constantIbLb0EEE, symObjAddr: 0x34A8, symBinAddr: 0x100006E6C, symSize: 0x94 }
  - { offsetInCU: 0xC995, offset: 0xC995, size: 0x8, addend: 0x0, symName: __ZNKSt3__114__split_bufferIiRNS_9allocatorIiEEE9__end_capB8ue170006Ev, symObjAddr: 0x353C, symBinAddr: 0x100006F00, symSize: 0x28 }
  - { offsetInCU: 0xC9BA, offset: 0xC9BA, size: 0x8, addend: 0x0, symName: __ZNKSt3__117__compressed_pairIPiRNS_9allocatorIiEEE5firstB8ue170006Ev, symObjAddr: 0x3564, symBinAddr: 0x100006F28, symSize: 0x24 }
  - { offsetInCU: 0xC9DF, offset: 0xC9DF, size: 0x8, addend: 0x0, symName: __ZNSt3__16vectorIiNS_9allocatorIiEEEC2ERKS3_, symObjAddr: 0x3588, symBinAddr: 0x100006F4C, symSize: 0x94 }
  - { offsetInCU: 0xCA19, offset: 0xCA19, size: 0x8, addend: 0x0, symName: __ZNSt3__116allocator_traitsINS_9allocatorIiEEE37select_on_container_copy_constructionB8ue170006IS2_vvEES2_RKS2_, symObjAddr: 0x361C, symBinAddr: 0x100006FE0, symSize: 0x10 }
  - { offsetInCU: 0xCA4D, offset: 0xCA4D, size: 0x8, addend: 0x0, symName: __ZNSt3__117__compressed_pairIPiNS_9allocatorIiEEEC1B8ue170006IDnS3_EEOT_OT0_, symObjAddr: 0x362C, symBinAddr: 0x100006FF0, symSize: 0x3C }
  - { offsetInCU: 0xCAA4, offset: 0xCAA4, size: 0x8, addend: 0x0, symName: __ZNSt3__16vectorIiNS_9allocatorIiEEE16__init_with_sizeB8ue170006IPiS5_EEvT_T0_m, symObjAddr: 0x3668, symBinAddr: 0x10000702C, symSize: 0xC0 }
  - { offsetInCU: 0xCB17, offset: 0xCB17, size: 0x8, addend: 0x0, symName: __ZNSt3__117__compressed_pairIPiNS_9allocatorIiEEEC2B8ue170006IDnS3_EEOT_OT0_, symObjAddr: 0x3728, symBinAddr: 0x1000070EC, symSize: 0x44 }
  - { offsetInCU: 0xCB6E, offset: 0xCB6E, size: 0x8, addend: 0x0, symName: __ZNSt3__122__compressed_pair_elemINS_9allocatorIiEELi1ELb1EEC2B8ue170006IS2_vEEOT_, symObjAddr: 0x376C, symBinAddr: 0x100007130, symSize: 0x18 }
  - { offsetInCU: 0xCBAE, offset: 0xCBAE, size: 0x8, addend: 0x0, symName: __ZNSt3__16vectorIiNS_9allocatorIiEEE18__construct_at_endIPiS5_EEvT_T0_m, symObjAddr: 0x3784, symBinAddr: 0x100007148, symSize: 0x94 }
  - { offsetInCU: 0xCC3C, offset: 0xCC3C, size: 0x8, addend: 0x0, symName: __ZNSt3__14pairIPiS1_EC1B8ue170006ERKS1_S4_, symObjAddr: 0x3AA0, symBinAddr: 0x100007464, symSize: 0x3C }
  - { offsetInCU: 0xCC81, offset: 0xCC81, size: 0x8, addend: 0x0, symName: __ZNSt3__14pairIPiS1_EC2B8ue170006ERKS1_S4_, symObjAddr: 0x3ADC, symBinAddr: 0x1000074A0, symSize: 0x34 }
  - { offsetInCU: 0xCCC6, offset: 0xCCC6, size: 0x8, addend: 0x0, symName: __ZNSt3__129_AllocatorDestroyRangeReverseINS_9allocatorIiEEPiEC1B8ue170006ERS2_RS3_S6_, symObjAddr: 0x3B5C, symBinAddr: 0x100007520, symSize: 0x44 }
  - { offsetInCU: 0xCD1C, offset: 0xCD1C, size: 0x8, addend: 0x0, symName: __ZNSt3__116allocator_traitsINS_9allocatorIiEEE9constructB8ue170006IiJRiEvEEvRS2_PT_DpOT0_, symObjAddr: 0x3BA0, symBinAddr: 0x100007564, symSize: 0x34 }
  - { offsetInCU: 0xCD73, offset: 0xCD73, size: 0x8, addend: 0x0, symName: __ZNSt3__128__exception_guard_exceptionsINS_29_AllocatorDestroyRangeReverseINS_9allocatorIiEEPiEEE10__completeB8ue170006Ev, symObjAddr: 0x3BD4, symBinAddr: 0x100007598, symSize: 0x1C }
  - { offsetInCU: 0xCD98, offset: 0xCD98, size: 0x8, addend: 0x0, symName: __ZNSt3__128__exception_guard_exceptionsINS_29_AllocatorDestroyRangeReverseINS_9allocatorIiEEPiEEED1B8ue170006Ev, symObjAddr: 0x3BF0, symBinAddr: 0x1000075B4, symSize: 0x2C }
  - { offsetInCU: 0xCDC1, offset: 0xCDC1, size: 0x8, addend: 0x0, symName: __ZNSt3__128__exception_guard_exceptionsINS_29_AllocatorDestroyRangeReverseINS_9allocatorIiEEPiEEEC1B8ue170006ES5_, symObjAddr: 0x3C1C, symBinAddr: 0x1000075E0, symSize: 0x34 }
  - { offsetInCU: 0xCDF9, offset: 0xCDF9, size: 0x8, addend: 0x0, symName: __ZNSt3__128__exception_guard_exceptionsINS_29_AllocatorDestroyRangeReverseINS_9allocatorIiEEPiEEEC2B8ue170006ES5_, symObjAddr: 0x3C50, symBinAddr: 0x100007614, symSize: 0x30 }
  - { offsetInCU: 0xCE31, offset: 0xCE31, size: 0x8, addend: 0x0, symName: __ZNSt3__129_AllocatorDestroyRangeReverseINS_9allocatorIiEEPiEC2B8ue170006ERS2_RS3_S6_, symObjAddr: 0x3C80, symBinAddr: 0x100007644, symSize: 0x38 }
  - { offsetInCU: 0xCE87, offset: 0xCE87, size: 0x8, addend: 0x0, symName: __ZNSt3__19allocatorIiE9constructB8ue170006IiJRiEEEvPT_DpOT0_, symObjAddr: 0x3CB8, symBinAddr: 0x10000767C, symSize: 0x28 }
  - { offsetInCU: 0xCEDC, offset: 0xCEDC, size: 0x8, addend: 0x0, symName: __ZNSt3__128__exception_guard_exceptionsINS_29_AllocatorDestroyRangeReverseINS_9allocatorIiEEPiEEED2B8ue170006Ev, symObjAddr: 0x3CE0, symBinAddr: 0x1000076A4, symSize: 0x48 }
  - { offsetInCU: 0xCF05, offset: 0xCF05, size: 0x8, addend: 0x0, symName: __ZNKSt3__129_AllocatorDestroyRangeReverseINS_9allocatorIiEEPiEclB8ue170006Ev, symObjAddr: 0x3D28, symBinAddr: 0x1000076EC, symSize: 0x68 }
  - { offsetInCU: 0xCF2A, offset: 0xCF2A, size: 0x8, addend: 0x0, symName: __ZNSt3__118__unwrap_iter_implIPiLb1EE8__unwrapB8ue170006ES1_, symObjAddr: 0x3E00, symBinAddr: 0x1000077C4, symSize: 0x24 }
  - { offsetInCU: 0xCF4D, offset: 0xCF4D, size: 0x8, addend: 0x0, symName: __ZNSt3__118__unwrap_iter_implIPiLb1EE8__rewrapB8ue170006ES1_S1_, symObjAddr: 0x3E24, symBinAddr: 0x1000077E8, symSize: 0x50 }
...
